target datalayout = "e-m:e-p270:32:32-p271:32:32-p272:64:64-i64:64-i128:128-f80:128-n8:16:32:64-S128"
target triple = "x86_64-pc-linux-gnu"

%struct.SurfaceDataRasInfo = type { %struct.SurfaceDataBounds, ptr, i32, i32, i32, i32, ptr, ptr, ptr, ptr, ptr, ptr, i32, %union.anon.0 }
%struct.SurfaceDataBounds = type { i32, i32, i32, i32 }
%union.anon.0 = type { ptr, [56 x i8] }

; Function Attrs: nounwind uwtable
define hidden void @ByteIndexedBmToByteIndexedXparBgCopy(ptr noundef %0, ptr noundef %1, i32 noundef %2, i32 noundef %3, i32 noundef %4, ptr noundef %5, ptr noundef %6, ptr noundef %7, ptr noundef %8) #0 {
  %10 = alloca ptr, align 8
  %11 = alloca ptr, align 8
  %12 = alloca i32, align 4
  %13 = alloca i32, align 4
  %14 = alloca i32, align 4
  %15 = alloca ptr, align 8
  %16 = alloca ptr, align 8
  %17 = alloca ptr, align 8
  %18 = alloca ptr, align 8
  %19 = alloca i32, align 4
  %20 = alloca i32, align 4
  %21 = alloca i32, align 4
  %22 = alloca ptr, align 8
  %23 = alloca ptr, align 8
  %24 = alloca ptr, align 8
  %25 = alloca ptr, align 8
  %26 = alloca ptr, align 8
  %27 = alloca ptr, align 8
  %28 = alloca ptr, align 8
  %29 = alloca i32, align 4
  %30 = alloca i32, align 4
  %31 = alloca i32, align 4
  %32 = alloca i32, align 4
  %33 = alloca i32, align 4
  %34 = alloca i32, align 4
  %35 = alloca i32, align 4
  store ptr %0, ptr %10, align 8
  store ptr %1, ptr %11, align 8
  store i32 %2, ptr %12, align 4
  store i32 %3, ptr %13, align 4
  store i32 %4, ptr %14, align 4
  store ptr %5, ptr %15, align 8
  store ptr %6, ptr %16, align 8
  store ptr %7, ptr %17, align 8
  store ptr %8, ptr %18, align 8
  br label %36

36:                                               ; preds = %9
  %37 = load ptr, ptr %15, align 8
  %38 = getelementptr inbounds %struct.SurfaceDataRasInfo, ptr %37, i32 0, i32 6
  %39 = load ptr, ptr %38, align 8
  store ptr %39, ptr %26, align 8
  br label %40

40:                                               ; preds = %36
  br label %41

41:                                               ; preds = %40
  %42 = load ptr, ptr %10, align 8
  store ptr %42, ptr %27, align 8
  %43 = load ptr, ptr %11, align 8
  store ptr %43, ptr %28, align 8
  %44 = load ptr, ptr %15, align 8
  %45 = getelementptr inbounds %struct.SurfaceDataRasInfo, ptr %44, i32 0, i32 4
  %46 = load i32, ptr %45, align 8
  store i32 %46, ptr %29, align 4
  %47 = load ptr, ptr %16, align 8
  %48 = getelementptr inbounds %struct.SurfaceDataRasInfo, ptr %47, i32 0, i32 4
  %49 = load i32, ptr %48, align 8
  store i32 %49, ptr %30, align 4
  br label %50

50:                                               ; preds = %41
  br label %51

51:                                               ; preds = %50
  %52 = load ptr, ptr %16, align 8
  %53 = getelementptr inbounds %struct.SurfaceDataRasInfo, ptr %52, i32 0, i32 0
  %54 = getelementptr inbounds %struct.SurfaceDataBounds, ptr %53, i32 0, i32 1
  %55 = load i32, ptr %54, align 4
  %56 = and i32 %55, 7
  %57 = shl i32 %56, 3
  store i32 %57, ptr %20, align 4
  br label %58

58:                                               ; preds = %51
  %59 = load ptr, ptr %16, align 8
  %60 = getelementptr inbounds %struct.SurfaceDataRasInfo, ptr %59, i32 0, i32 7
  %61 = load ptr, ptr %60, align 8
  store ptr %61, ptr %25, align 8
  %62 = load ptr, ptr %16, align 8
  %63 = getelementptr inbounds %struct.SurfaceDataRasInfo, ptr %62, i32 0, i32 12
  %64 = load i32, ptr %63, align 8
  store i32 %64, ptr %21, align 4
  br label %65

65:                                               ; preds = %58
  %66 = load i32, ptr %12, align 4
  %67 = mul i32 %66, 1
  %68 = load i32, ptr %29, align 4
  %69 = sub i32 %68, %67
  store i32 %69, ptr %29, align 4
  %70 = load i32, ptr %12, align 4
  %71 = mul i32 %70, 1
  %72 = load i32, ptr %30, align 4
  %73 = sub i32 %72, %71
  store i32 %73, ptr %30, align 4
  br label %74

74:                                               ; preds = %277, %65
  %75 = load i32, ptr %12, align 4
  store i32 %75, ptr %31, align 4
  br label %76

76:                                               ; preds = %74
  %77 = load ptr, ptr %16, align 8
  %78 = getelementptr inbounds %struct.SurfaceDataRasInfo, ptr %77, i32 0, i32 8
  %79 = load ptr, ptr %78, align 8
  %80 = load i32, ptr %20, align 4
  %81 = sext i32 %80 to i64
  %82 = getelementptr inbounds i8, ptr %79, i64 %81
  store ptr %82, ptr %22, align 8
  %83 = load ptr, ptr %16, align 8
  %84 = getelementptr inbounds %struct.SurfaceDataRasInfo, ptr %83, i32 0, i32 9
  %85 = load ptr, ptr %84, align 8
  %86 = load i32, ptr %20, align 4
  %87 = sext i32 %86 to i64
  %88 = getelementptr inbounds i8, ptr %85, i64 %87
  store ptr %88, ptr %23, align 8
  %89 = load ptr, ptr %16, align 8
  %90 = getelementptr inbounds %struct.SurfaceDataRasInfo, ptr %89, i32 0, i32 10
  %91 = load ptr, ptr %90, align 8
  %92 = load i32, ptr %20, align 4
  %93 = sext i32 %92 to i64
  %94 = getelementptr inbounds i8, ptr %91, i64 %93
  store ptr %94, ptr %24, align 8
  %95 = load ptr, ptr %16, align 8
  %96 = getelementptr inbounds %struct.SurfaceDataRasInfo, ptr %95, i32 0, i32 0
  %97 = getelementptr inbounds %struct.SurfaceDataBounds, ptr %96, i32 0, i32 0
  %98 = load i32, ptr %97, align 8
  %99 = and i32 %98, 7
  store i32 %99, ptr %19, align 4
  br label %100

100:                                              ; preds = %76
  br label %101

101:                                              ; preds = %257, %100
  br label %102

102:                                              ; preds = %101
  %103 = load ptr, ptr %26, align 8
  %104 = load ptr, ptr %27, align 8
  %105 = getelementptr inbounds i8, ptr %104, i64 0
  %106 = load i8, ptr %105, align 1
  %107 = zext i8 %106 to i64
  %108 = getelementptr inbounds i32, ptr %103, i64 %107
  %109 = load i32, ptr %108, align 4
  store i32 %109, ptr %32, align 4
  %110 = load i32, ptr %32, align 4
  %111 = icmp slt i32 %110, 0
  br i1 %111, label %112, label %239

112:                                              ; preds = %102
  br label %113

113:                                              ; preds = %112
  br label %114

114:                                              ; preds = %113
  %115 = load i32, ptr %32, align 4
  %116 = and i32 %115, 255
  store i32 %116, ptr %35, align 4
  %117 = load i32, ptr %32, align 4
  %118 = ashr i32 %117, 8
  %119 = and i32 %118, 255
  store i32 %119, ptr %34, align 4
  %120 = load i32, ptr %32, align 4
  %121 = ashr i32 %120, 16
  %122 = and i32 %121, 255
  store i32 %122, ptr %33, align 4
  br label %123

123:                                              ; preds = %114
  br label %124

124:                                              ; preds = %123
  %125 = load i32, ptr %33, align 4
  %126 = icmp eq i32 %125, 0
  br i1 %126, label %130, label %127

127:                                              ; preds = %124
  %128 = load i32, ptr %33, align 4
  %129 = icmp eq i32 %128, 255
  br i1 %129, label %130, label %145

130:                                              ; preds = %127, %124
  %131 = load i32, ptr %34, align 4
  %132 = icmp eq i32 %131, 0
  br i1 %132, label %136, label %133

133:                                              ; preds = %130
  %134 = load i32, ptr %34, align 4
  %135 = icmp eq i32 %134, 255
  br i1 %135, label %136, label %145

136:                                              ; preds = %133, %130
  %137 = load i32, ptr %35, align 4
  %138 = icmp eq i32 %137, 0
  br i1 %138, label %142, label %139

139:                                              ; preds = %136
  %140 = load i32, ptr %35, align 4
  %141 = icmp eq i32 %140, 255
  br i1 %141, label %142, label %145

142:                                              ; preds = %139, %136
  %143 = load i32, ptr %21, align 4
  %144 = icmp ne i32 %143, 0
  br i1 %144, label %170, label %145

145:                                              ; preds = %142, %139, %133, %127
  %146 = load ptr, ptr %22, align 8
  %147 = load i32, ptr %19, align 4
  %148 = sext i32 %147 to i64
  %149 = getelementptr inbounds i8, ptr %146, i64 %148
  %150 = load i8, ptr %149, align 1
  %151 = sext i8 %150 to i32
  %152 = load i32, ptr %33, align 4
  %153 = add nsw i32 %152, %151
  store i32 %153, ptr %33, align 4
  %154 = load ptr, ptr %23, align 8
  %155 = load i32, ptr %19, align 4
  %156 = sext i32 %155 to i64
  %157 = getelementptr inbounds i8, ptr %154, i64 %156
  %158 = load i8, ptr %157, align 1
  %159 = sext i8 %158 to i32
  %160 = load i32, ptr %34, align 4
  %161 = add nsw i32 %160, %159
  store i32 %161, ptr %34, align 4
  %162 = load ptr, ptr %24, align 8
  %163 = load i32, ptr %19, align 4
  %164 = sext i32 %163 to i64
  %165 = getelementptr inbounds i8, ptr %162, i64 %164
  %166 = load i8, ptr %165, align 1
  %167 = sext i8 %166 to i32
  %168 = load i32, ptr %35, align 4
  %169 = add nsw i32 %168, %167
  store i32 %169, ptr %35, align 4
  br label %170

170:                                              ; preds = %145, %142
  br label %171

171:                                              ; preds = %170
  %172 = load i32, ptr %33, align 4
  %173 = load i32, ptr %34, align 4
  %174 = or i32 %172, %173
  %175 = load i32, ptr %35, align 4
  %176 = or i32 %174, %175
  %177 = ashr i32 %176, 8
  %178 = icmp ne i32 %177, 0
  br i1 %178, label %179, label %213

179:                                              ; preds = %171
  br label %180

180:                                              ; preds = %179
  %181 = load i32, ptr %33, align 4
  %182 = ashr i32 %181, 8
  %183 = icmp ne i32 %182, 0
  br i1 %183, label %184, label %189

184:                                              ; preds = %180
  %185 = load i32, ptr %33, align 4
  %186 = ashr i32 %185, 31
  %187 = xor i32 %186, -1
  %188 = and i32 %187, 255
  store i32 %188, ptr %33, align 4
  br label %189

189:                                              ; preds = %184, %180
  br label %190

190:                                              ; preds = %189
  br label %191

191:                                              ; preds = %190
  %192 = load i32, ptr %34, align 4
  %193 = ashr i32 %192, 8
  %194 = icmp ne i32 %193, 0
  br i1 %194, label %195, label %200

195:                                              ; preds = %191
  %196 = load i32, ptr %34, align 4
  %197 = ashr i32 %196, 31
  %198 = xor i32 %197, -1
  %199 = and i32 %198, 255
  store i32 %199, ptr %34, align 4
  br label %200

200:                                              ; preds = %195, %191
  br label %201

201:                                              ; preds = %200
  br label %202

202:                                              ; preds = %201
  %203 = load i32, ptr %35, align 4
  %204 = ashr i32 %203, 8
  %205 = icmp ne i32 %204, 0
  br i1 %205, label %206, label %211

206:                                              ; preds = %202
  %207 = load i32, ptr %35, align 4
  %208 = ashr i32 %207, 31
  %209 = xor i32 %208, -1
  %210 = and i32 %209, 255
  store i32 %210, ptr %35, align 4
  br label %211

211:                                              ; preds = %206, %202
  br label %212

212:                                              ; preds = %211
  br label %213

213:                                              ; preds = %212, %171
  br label %214

214:                                              ; preds = %213
  %215 = load ptr, ptr %25, align 8
  %216 = load i32, ptr %33, align 4
  %217 = trunc i32 %216 to i8
  %218 = zext i8 %217 to i32
  %219 = ashr i32 %218, 3
  %220 = shl i32 %219, 10
  %221 = load i32, ptr %34, align 4
  %222 = trunc i32 %221 to i8
  %223 = zext i8 %222 to i32
  %224 = ashr i32 %223, 3
  %225 = shl i32 %224, 5
  %226 = add nsw i32 %220, %225
  %227 = load i32, ptr %35, align 4
  %228 = trunc i32 %227 to i8
  %229 = zext i8 %228 to i32
  %230 = ashr i32 %229, 3
  %231 = add nsw i32 %226, %230
  %232 = sext i32 %231 to i64
  %233 = getelementptr inbounds i8, ptr %215, i64 %232
  %234 = load i8, ptr %233, align 1
  %235 = load ptr, ptr %28, align 8
  %236 = getelementptr inbounds i8, ptr %235, i64 0
  store i8 %234, ptr %236, align 1
  br label %237

237:                                              ; preds = %214
  br label %238

238:                                              ; preds = %237
  br label %244

239:                                              ; preds = %102
  %240 = load i32, ptr %14, align 4
  %241 = trunc i32 %240 to i8
  %242 = load ptr, ptr %28, align 8
  %243 = getelementptr inbounds i8, ptr %242, i64 0
  store i8 %241, ptr %243, align 1
  br label %244

244:                                              ; preds = %239, %238
  br label %245

245:                                              ; preds = %244
  %246 = load ptr, ptr %27, align 8
  %247 = ptrtoint ptr %246 to i64
  %248 = add nsw i64 %247, 1
  %249 = inttoptr i64 %248 to ptr
  store ptr %249, ptr %27, align 8
  %250 = load ptr, ptr %28, align 8
  %251 = ptrtoint ptr %250 to i64
  %252 = add nsw i64 %251, 1
  %253 = inttoptr i64 %252 to ptr
  store ptr %253, ptr %28, align 8
  %254 = load i32, ptr %19, align 4
  %255 = add nsw i32 %254, 1
  %256 = and i32 %255, 7
  store i32 %256, ptr %19, align 4
  br label %257

257:                                              ; preds = %245
  %258 = load i32, ptr %31, align 4
  %259 = add i32 %258, -1
  store i32 %259, ptr %31, align 4
  %260 = icmp ugt i32 %259, 0
  br i1 %260, label %101, label %261, !llvm.loop !36

261:                                              ; preds = %257
  %262 = load ptr, ptr %27, align 8
  %263 = ptrtoint ptr %262 to i64
  %264 = load i32, ptr %29, align 4
  %265 = sext i32 %264 to i64
  %266 = add nsw i64 %263, %265
  %267 = inttoptr i64 %266 to ptr
  store ptr %267, ptr %27, align 8
  %268 = load ptr, ptr %28, align 8
  %269 = ptrtoint ptr %268 to i64
  %270 = load i32, ptr %30, align 4
  %271 = sext i32 %270 to i64
  %272 = add nsw i64 %269, %271
  %273 = inttoptr i64 %272 to ptr
  store ptr %273, ptr %28, align 8
  %274 = load i32, ptr %20, align 4
  %275 = add nsw i32 %274, 8
  %276 = and i32 %275, 56
  store i32 %276, ptr %20, align 4
  br label %277

277:                                              ; preds = %261
  %278 = load i32, ptr %13, align 4
  %279 = add i32 %278, -1
  store i32 %279, ptr %13, align 4
  %280 = icmp ugt i32 %279, 0
  br i1 %280, label %74, label %281, !llvm.loop !37

281:                                              ; preds = %277
  br label %282

282:                                              ; preds = %281
  ret void
}