; Function Attrs: nofree norecurse nosync nounwind memory(readwrite, inaccessiblemem: none) uwtable
define hidden void @ByteIndexedBmToByteIndexedXparBgCopy(ptr noundef %0, ptr noundef %1, i32 noundef %2, i32 noundef %3, i32 noundef %4, ptr nocapture noundef readonly %5, ptr nocapture noundef readonly %6, ptr nocapture readnone %7, ptr nocapture readnone %8) #0 {
  %10 = getelementptr inbounds i8, ptr %5, i64 40
  %11 = load ptr, ptr %10, align 8
  %12 = getelementptr inbounds i8, ptr %5, i64 32
  %13 = load i32, ptr %12, align 8
  %14 = getelementptr inbounds i8, ptr %6, i64 32
  %15 = load i32, ptr %14, align 8
  %16 = getelementptr inbounds i8, ptr %6, i64 4
  %17 = load i32, ptr %16, align 4
  %18 = shl i32 %17, 3
  %19 = getelementptr inbounds i8, ptr %6, i64 48
  %20 = load ptr, ptr %19, align 8
  %21 = getelementptr inbounds i8, ptr %6, i64 88
  %22 = load i32, ptr %21, align 8
  %23 = sub i32 %13, %2
  %24 = sub i32 %15, %2
  %25 = sext i32 %23 to i64
  %26 = getelementptr inbounds i8, ptr %6, i64 56
  %27 = getelementptr inbounds i8, ptr %6, i64 64
  %28 = getelementptr inbounds i8, ptr %6, i64 72
  %29 = trunc i32 %4 to i8
  %30 = icmp ne i32 %22, 0
  %31 = sext i32 %24 to i64
  br label %32

32:                                               ; preds = %101, %9
  %.086.in = phi i32 [ %18, %9 ], [ %106, %101 ]
  %.083 = phi ptr [ %0, %9 ], [ %103, %101 ]
  %.081 = phi ptr [ %1, %9 ], [ %105, %101 ]
  %.079 = phi i32 [ %3, %9 ], [ %107, %101 ]
  %.086 = and i32 %.086.in, 56
  %33 = load ptr, ptr %26, align 8
  %34 = zext nneg i32 %.086 to i64
  %35 = getelementptr inbounds i8, ptr %33, i64 %34
  %36 = load ptr, ptr %27, align 8
  %37 = getelementptr inbounds i8, ptr %36, i64 %34
  %38 = load ptr, ptr %28, align 8
  %39 = getelementptr inbounds i8, ptr %38, i64 %34
  %40 = load i32, ptr %6, align 8
  br label %41

41:                                               ; preds = %92, %32
  %.085.in = phi i32 [ %40, %32 ], [ %99, %92 ]
  %.184 = phi ptr [ %.083, %32 ], [ %95, %92 ]
  %.182 = phi ptr [ %.081, %32 ], [ %98, %92 ]
  %.080 = phi i32 [ %2, %32 ], [ %100, %92 ]
  %.085 = and i32 %.085.in, 7
  %42 = load i8, ptr %.184, align 1
  %43 = zext i8 %42 to i64
  %44 = getelementptr inbounds i32, ptr %11, i64 %43
  %45 = load i32, ptr %44, align 4
  %46 = icmp slt i32 %45, 0
  br i1 %46, label %47, label %92

47:                                               ; preds = %41
  %48 = and i32 %45, 255
  %49 = lshr i32 %45, 8
  %50 = and i32 %49, 255
  %51 = lshr i32 %45, 16
  %52 = and i32 %51, 255
  %trunc = trunc i32 %51 to i8
  switch i8 %trunc, label %57 [
    i8 -1, label %53
    i8 0, label %53
  ]

53:                                               ; preds = %47, %47
  %trunc97 = trunc i32 %49 to i8
  switch i8 %trunc97, label %57 [
    i8 -1, label %54
    i8 0, label %54
  ]

54:                                               ; preds = %53, %53
  %55 = icmp eq i32 %48, 0
  %56 = icmp eq i32 %48, 255
  %or.cond5 = or i1 %55, %56
  %or.cond7 = select i1 %or.cond5, i1 %30, i1 false
  br i1 %or.cond7, label %71, label %57

57:                                               ; preds = %53, %47, %54
  %58 = zext nneg i32 %.085 to i64
  %59 = getelementptr inbounds i8, ptr %35, i64 %58
  %60 = load i8, ptr %59, align 1
  %61 = sext i8 %60 to i32
  %62 = add nsw i32 %52, %61
  %63 = getelementptr inbounds i8, ptr %37, i64 %58
  %64 = load i8, ptr %63, align 1
  %65 = sext i8 %64 to i32
  %66 = add nsw i32 %50, %65
  %67 = getelementptr inbounds i8, ptr %39, i64 %58
  %68 = load i8, ptr %67, align 1
  %69 = sext i8 %68 to i32
  %70 = add nsw i32 %48, %69
  br label %71

71:                                               ; preds = %57, %54
  %.076 = phi i32 [ %52, %54 ], [ %62, %57 ]
  %.074 = phi i32 [ %50, %54 ], [ %66, %57 ]
  %.0 = phi i32 [ %48, %54 ], [ %70, %57 ]
  %72 = or i32 %.074, %.076
  %73 = or i32 %72, %.0
  %.not = icmp ult i32 %73, 256
  br i1 %.not, label %81, label %74

74:                                               ; preds = %71
  %75 = tail call i32 @llvm.smax.i32(i32 %.076, i32 0)
  %76 = tail call i32 @llvm.umin.i32(i32 %75, i32 255)
  %77 = tail call i32 @llvm.smax.i32(i32 %.074, i32 0)
  %78 = tail call i32 @llvm.umin.i32(i32 %77, i32 255)
  %.not93 = icmp ult i32 %.0, 256
  br i1 %.not93, label %81, label %79

79:                                               ; preds = %74
  %isnotneg.inv94 = icmp slt i32 %.0, 0
  %80 = select i1 %isnotneg.inv94, i32 0, i32 255
  br label %81

81:                                               ; preds = %71, %74, %79
  %.278 = phi i32 [ %76, %79 ], [ %76, %74 ], [ %.076, %71 ]
  %.2 = phi i32 [ %78, %79 ], [ %78, %74 ], [ %.074, %71 ]
  %.1 = phi i32 [ %80, %79 ], [ %.0, %74 ], [ %.0, %71 ]
  %82 = shl nsw i32 %.278, 7
  %83 = and i32 %82, 31744
  %84 = shl nsw i32 %.2, 2
  %85 = and i32 %84, 992
  %86 = or disjoint i32 %85, %83
  %87 = lshr i32 %.1, 3
  %88 = or disjoint i32 %86, %87
  %89 = zext nneg i32 %88 to i64
  %90 = getelementptr inbounds i8, ptr %20, i64 %89
  %91 = load i8, ptr %90, align 1
  br label %92

92:                                               ; preds = %41, %81
  %storemerge = phi i8 [ %91, %81 ], [ %29, %41 ]
  store i8 %storemerge, ptr %.182, align 1
  %93 = ptrtoint ptr %.184 to i64
  %94 = add nsw i64 %93, 1
  %95 = inttoptr i64 %94 to ptr
  %96 = ptrtoint ptr %.182 to i64
  %97 = add nsw i64 %96, 1
  %98 = inttoptr i64 %97 to ptr
  %99 = add nuw nsw i32 %.085, 1
  %100 = add i32 %.080, -1
  %.not95 = icmp eq i32 %100, 0
  br i1 %.not95, label %101, label %41, !llvm.loop !37

101:                                              ; preds = %92
  %102 = add nsw i64 %94, %25
  %103 = inttoptr i64 %102 to ptr
  %104 = add nsw i64 %97, %31
  %105 = inttoptr i64 %104 to ptr
  %106 = add nuw nsw i32 %.086, 8
  %107 = add i32 %.079, -1
  %.not96 = icmp eq i32 %107, 0
  br i1 %.not96, label %108, label %32, !llvm.loop !38

108:                                              ; preds = %101
  ret void
}